; Function Attrs: mustprogress nofree norecurse nosync nounwind willreturn memory(argmem: read) uwtable
define noundef zeroext i1 @_ZNK32pxrInternal_v0_24__pxrReserved__10PcpNodeRefltERKS0_(ptr noundef nonnull readonly align 8 captures(none) dereferenceable(16) %0, ptr noundef nonnull readonly align 8 captures(none) dereferenceable(16) %1) local_unnamed_addr #0 align 2 {
  %3 = getelementptr inbounds nuw i8, ptr %0, i64 8
  %4 = load i64, ptr %3, align 8
  %5 = getelementptr inbounds nuw i8, ptr %1, i64 8
  %6 = load i64, ptr %5, align 8
  %7 = icmp ult i64 %4, %6
  br i1 %7, label %14, label %8

8:                                                ; preds = %2
  %9 = icmp ugt i64 %4, %6
  br i1 %9, label %14, label %10

10:                                               ; preds = %8
  %11 = load ptr, ptr %0, align 8
  %12 = load ptr, ptr %1, align 8
  %13 = icmp ult ptr %11, %12
  br label %14

14:                                               ; preds = %8, %2, %10
  %.0 = phi i1 [ %13, %10 ], [ true, %2 ], [ false, %8 ]
  ret i1 %.0
}